ccopy_reg
_reconstructor
p0
(c__main__
BiLSTM_CRF
p1
c__builtin__
object
p2
Ntp3
Rp4
(dp5
S'vocab_size'
p6
I343
sS'_backward_hooks'
p7
ccollections
OrderedDict
p8
((lp9
tp10
Rp11
sS'_forward_pre_hooks'
p12
g8
((lp13
tp14
Rp15
sS'_backend'
p16
ctorch.nn.backends.thnn
_get_thnn_function_backend
p17
(tRp18
sS'tag_to_ix'
p19
(dp20
S'<START>'
p21
I2
sS'<STOP>'
p22
I3
sS'T'
p23
I1
sS'F'
p24
I0
ssS'tagset_size'
p25
I4
sS'_forward_hooks'
p26
g8
((lp27
tp28
Rp29
sS'_modules'
p30
g8
((lp31
(lp32
S'word_embeds'
p33
ag0
(ctorch.nn.modules.sparse
Embedding
p34
g2
Ntp35
Rp36
(dp37
S'padding_idx'
p38
NsS'norm_type'
p39
I2
sg7
g8
((lp40
tp41
Rp42
sg12
g8
((lp43
tp44
Rp45
sg16
g18
sS'num_embeddings'
p46
I343
sS'sparse'
p47
I00
sg26
g8
((lp48
tp49
Rp50
sg30
g8
((lp51
tp52
Rp53
sS'embedding_dim'
p54
I5
sS'_parameters'
p55
g8
((lp56
(lp57
S'weight'
p58
actorch._utils
_rebuild_tensor_v2
p59
(ctorch
FloatStorage
p60
((lp61
F-1.4537949562072754
aF-0.7671618461608887
aF-0.6540696024894714
aF-1.6310129165649414
aF-0.08845752477645874
aF-0.5469242334365845
aF-1.0059870481491089
aF-1.5696535110473633
aF-0.7389541268348694
aF0.34179019927978516
aF-0.7793864607810974
aF-0.2557923197746277
aF-0.2200637310743332
aF1.6639289855957031
aF0.24813365936279297
aF0.45012158155441284
aF-0.7218425273895264
aF-1.1280450820922852
aF0.6860677003860474
aF0.30247125029563904
aF0.4415823519229889
aF0.4292950928211212
aF-0.9267938733100891
aF0.9234281182289124
aF0.7620993256568909
aF-0.06460940092802048
aF-2.232283115386963
aF-1.5244156122207642
aF-0.0034377388656139374
aF-0.6052991151809692
aF-0.7998872995376587
aF0.20555713772773743
aF1.8491188287734985
aF0.18610136210918427
aF0.2239876687526703
aF-0.6784765720367432
aF0.32685232162475586
aF-0.05870870500802994
aF0.4637707769870758
aF0.2546658515930176
aF-0.11677856743335724
aF0.27771008014678955
aF-0.17675159871578217
aF-0.0009404641459695995
aF2.3394322395324707
aF-1.110848069190979
aF1.651859998703003
aF-0.474060982465744
aF-0.7726708650588989
aF0.6005584597587585
aF0.28550368547439575
aF-0.4387012720108032
aF0.6503621935844421
aF0.475488543510437
aF1.1424195766448975
aF2.3388397693634033
aF-0.1856970340013504
aF1.1674329042434692
aF-0.2861234247684479
aF-0.11984487622976303
aF1.5931535959243774
aF-0.7353160977363586
aF-3.3026015758514404
aF-0.6115578413009644
aF0.08723049610853195
aF-0.9319069981575012
aF-0.606086015701294
aF-1.0020266771316528
aF-0.21253003180027008
aF0.044108618050813675
aF1.6210304498672485
aF0.005931141320616007
aF-1.0054221153259277
aF-0.15635685622692108
aF-1.028305172920227
aF-0.1584298461675644
aF-0.5791504979133606
aF-0.6700658798217773
aF0.2840348780155182
aF-0.40516939759254456
aF-0.490240216255188
aF0.060075655579566956
aF-0.6594980359077454
aF0.5974902510643005
aF-1.619035243988037
aF-0.04129856452345848
aF0.06288907676935196
aF-0.013396981172263622
aF0.37147098779678345
aF-0.033471737056970596
aF-0.8816574811935425
aF0.9241376519203186
aF-0.9511280655860901
aF-0.1409739851951599
aF0.2539669871330261
aF1.787779688835144
aF0.4664967954158783
aF1.4243577718734741
aF1.2482448816299438
aF0.0009913141839206219
aF0.9846035242080688
aF-0.44350165128707886
aF-1.4052798748016357
aF1.3016854524612427
aF0.8647885322570801
aF0.5396830439567566
aF0.06316893547773361
aF0.026561377570033073
aF-1.9029079675674438
aF-0.7066348791122437
aF-1.3485276699066162
aF-1.2027263641357422
aF0.8823166489601135
aF-0.6743975877761841
aF1.3148237466812134
aF0.7730534076690674
aF0.2743968963623047
aF0.9484249353408813
aF0.1297381967306137
aF-0.6407579779624939
aF2.4426918029785156
aF-0.12275462597608566
aF-0.0908035933971405
aF1.9115879535675049
aF-2.1399340629577637
aF1.8446475267410278
aF-0.13863618671894073
aF0.18909184634685516
aF0.2684101164340973
aF-1.8834095001220703
aF0.07598981261253357
aF0.8039092421531677
aF-0.3701806366443634
aF-2.173184633255005
aF-0.010311861522495747
aF-0.868145227432251
aF-1.471815824508667
aF-1.8422980308532715
aF0.7464398741722107
aF1.0255905389785767
aF2.1389834880828857
aF0.6648838520050049
aF1.83414626121521
aF-1.82285737991333
aF-1.3499846458435059
aF-1.0003280639648438
aF1.5093809366226196
aF0.6888213157653809
aF0.4924888014793396
aF-0.24947135150432587
aF0.4954283833503723
aF-1.6873281002044678
aF0.4575062394142151
aF-0.24905811250209808
aF-0.31474581360816956
aF1.1694236993789673
aF1.713839054107666
aF1.8060259819030762
aF-0.6003958582878113
aF2.6934590339660645
aF-0.20946410298347473
aF0.20257434248924255
aF-1.2085927724838257
aF0.24357576668262482
aF-1.2526929378509521
aF-1.3392317295074463
aF1.1733527183532715
aF0.7038726210594177
aF0.48202893137931824
aF1.0283963680267334
aF1.1063472032546997
aF-1.9119839668273926
aF-0.42841312289237976
aF-1.0915110111236572
aF-0.27517879009246826
aF-0.01963295415043831
aF0.7974911332130432
aF1.2239536046981812
aF0.4308833181858063
aF1.6091164350509644
aF-0.805487871170044
aF-0.20127059519290924
aF0.12076688557863235
aF-0.7373464703559875
aF1.829919695854187
aF-0.26241534948349
aF0.2400168478488922
aF1.298689603805542
aF0.12336607277393341
aF1.122739553451538
aF-0.1525120884180069
aF0.7452473044395447
aF-0.26875773072242737
aF0.7412790060043335
aF2.1105337142944336
aF-0.055967915803194046
aF0.9225437641143799
aF-2.0181829929351807
aF-2.8290441036224365
aF-0.45561525225639343
aF-0.9306430220603943
aF0.7134039998054504
aF-0.6451554298400879
aF0.5917267799377441
aF-2.0351953506469727
aF-0.11621241271495819
aF0.5435205101966858
aF0.5748732089996338
aF0.8945445418357849
aF1.6033313274383545
aF-0.5411996841430664
aF1.3606953620910645
aF0.20781174302101135
aF1.905078411102295
aF1.7800453901290894
aF1.2634574174880981
aF-0.9091052412986755
aF1.1977264881134033
aF1.243640661239624
aF-0.6974735856056213
aF-0.19012783467769623
aF-0.4932485818862915
aF1.6486659049987793
aF2.03879976272583
aF1.2740410566329956
aF0.03901837021112442
aF-0.5788088440895081
aF-0.7921895980834961
aF0.9840784668922424
aF2.4344534873962402
aF0.5284068584442139
aF-0.1605650633573532
aF0.32191288471221924
aF-0.325050950050354
aF1.075724482536316
aF-1.1790831089019775
aF1.7001163959503174
aF-2.158522844314575
aF-0.7699108719825745
aF1.0706820487976074
aF0.6782320737838745
aF0.8384856581687927
aF1.6159896850585938
aF-0.6923924088478088
aF-0.08012453466653824
aF-0.12492518126964569
aF-0.2228366732597351
aF-0.1110045537352562
aF0.46183741092681885
aF-0.516891360282898
aF-0.3906453847885132
aF0.9249614477157593
aF-0.15795692801475525
aF-1.274674415588379
aF0.03272545337677002
aF0.6174514293670654
aF-1.1491833925247192
aF0.8364809155464172
aF0.24396805465221405
aF0.9601491689682007
aF2.640674114227295
aF1.7702525854110718
aF-0.7123421430587769
aF-0.6849084496498108
aF-0.7679083347320557
aF1.5256553888320923
aF-1.10716712474823
aF0.7941212058067322
aF-0.5387769937515259
aF2.1185595989227295
aF-0.4902532398700714
aF-2.278545618057251
aF-1.0240702629089355
aF-0.9244530200958252
aF1.2623106241226196
aF-0.9116578102111816
aF-0.14739108085632324
aF-0.48325681686401367
aF1.145646095275879
aF0.7513607144355774
aF0.7981518507003784
aF-1.8891898393630981
aF-0.36425021290779114
aF-0.7017645239830017
aF0.22098314762115479
aF1.3654251098632812
aF-0.07144458591938019
aF-0.40345701575279236
aF-0.5930221676826477
aF-1.206099510192871
aF0.506123423576355
aF-0.8021602630615234
aF-0.8885148763656616
aF-1.7449994087219238
aF-0.73552006483078
aF-0.5159753561019897
aF0.7546102404594421
aF-0.13312911987304688
aF1.1377259492874146
aF0.7731031179428101
aF0.4914882183074951
aF1.2418075799942017
aF-0.9005035161972046
aF0.44573846459388733
aF0.9355444312095642
aF-0.27974826097488403
aF0.13801664113998413
aF2.3836655616760254
aF-0.6995676755905151
aF0.7156411409378052
aF0.1848388910293579
aF-0.2791457772254944
aF-0.0082244873046875
aF0.8301855325698853
aF-0.21046343445777893
aF0.4827288091182709
aF0.9935449361801147
aF-2.2514560222625732
aF-1.3716356754302979
aF-0.6627698540687561
aF0.7903053760528564
aF-0.8666157126426697
aF0.10358790308237076
aF-0.5117164850234985
aF1.3700389862060547
aF0.7696206569671631
aF-1.0962852239608765
aF-0.4224971532821655
aF0.3929981589317322
aF0.9987347722053528
aF-1.1981313228607178
aF-1.0820260047912598
aF-0.47160905599594116
aF0.14772653579711914
aF-0.670089840888977
aF1.2960624694824219
aF-0.6737661361694336
aF-0.10123402625322342
aF-0.5863205194473267
aF0.7707871198654175
aF0.8181848526000977
aF0.24345237016677856
aF0.15107451379299164
aF-2.375633955001831
aF0.6889187693595886
aF0.5056019425392151
aF1.2344263792037964
aF1.2346217632293701
aF0.24871057271957397
aF0.7484951019287109
aF-0.36995750665664673
aF-1.9622142314910889
aF0.18083277344703674
aF0.872929036617279
aF0.6894609332084656
aF-1.7795952558517456
aF-0.8169599771499634
aF-1.3513851165771484
aF1.596968173980713
aF0.091676726937294
aF0.8152485489845276
aF0.3600378632545471
aF-1.7015125751495361
aF1.0970206260681152
aF-2.553002119064331
aF-0.18028707802295685
aF0.2697634994983673
aF1.0961962938308716
aF-0.5918930172920227
aF1.0423067808151245
aF0.1649787425994873
aF-1.5569478273391724
aF-0.7473039627075195
aF0.5960172414779663
aF1.3031500577926636
aF-0.9329557418823242
aF1.3869272470474243
aF-0.34276604652404785
aF-0.003769059432670474
aF-0.42511698603630066
aF0.6720172166824341
aF0.4365670680999756
aF-1.0098004341125488
aF1.0525010824203491
aF-0.40620866417884827
aF-0.27954065799713135
aF1.4524517059326172
aF-1.369341254234314
aF0.6435211300849915
aF-0.9275424480438232
aF1.2136915922164917
aF0.5119510889053345
aF-0.2872869372367859
aF1.8310109376907349
aF-0.05310319364070892
aF0.05301690101623535
aF-0.7077802419662476
aF-0.6130572557449341
aF-0.5575870871543884
aF-1.9447506666183472
aF0.4335135519504547
aF-1.6287370920181274
aF-1.1353157758712769
aF-0.3079483211040497
aF-0.5794607996940613
aF0.25025850534439087
aF-0.31499794125556946
aF-0.1505684107542038
aF-0.6555187702178955
aF1.0864673852920532
aF-0.04439656808972359
aF-0.10525957494974136
aF-0.5849275588989258
aF0.5456003546714783
aF-0.9340409636497498
aF-0.08473055809736252
aF-0.7694076895713806
aF0.2844667136669159
aF-0.4937388002872467
aF1.092807412147522
aF-0.37680792808532715
aF-2.356656789779663
aF-1.542458415031433
aF-0.1172003298997879
aF-0.4590771496295929
aF-2.220212697982788
aF0.7061136960983276
aF0.22411103546619415
aF0.2578579783439636
aF0.9884346723556519
aF0.7032825350761414
aF1.9905438423156738
aF0.9965263605117798
aF1.2510513067245483
aF1.8310396671295166
aF-0.055727843195199966
aF-1.531071662902832
aF-0.01011852640658617
aF0.3877136707305908
aF0.8546013236045837
aF0.7372806668281555
aF-0.2353324443101883
aF-0.24113640189170837
aF-0.5860833525657654
aF-0.6681671738624573
aF-1.2479888200759888
aF1.8861124515533447
aF-1.8579210042953491
aF0.018663140013813972
aF0.2550124526023865
aF0.22549444437026978
aF0.2966233789920807
aF-0.4393356442451477
aF1.0137206315994263
aF1.8201037645339966
aF-0.855312168598175
aF0.4906575381755829
aF0.3637317717075348
aF-1.6756325960159302
aF1.7949358224868774
aF-3.2678844928741455
aF0.47901633381843567
aF-2.1836187839508057
aF-1.6355109214782715
aF0.7368677258491516
aF1.1598974466323853
aF0.7098645567893982
aF0.6031619906425476
aF1.2469650506973267
aF-0.5663113594055176
aF-0.5934995412826538
aF0.9273890256881714
aF0.10055197030305862
aF-0.06535114347934723
aF-0.06935203075408936
aF-0.9759542346000671
aF0.21235020458698273
aF-0.6540507674217224
aF-0.7290098071098328
aF0.27489590644836426
aF-0.3254299759864807
aF-0.09132963418960571
aF-0.48750028014183044
aF-0.7023811340332031
aF0.7674230933189392
aF0.6670894622802734
aF-0.46426156163215637
aF-0.3073458671569824
aF-1.5047353506088257
aF-0.6811491250991821
aF-1.3006482124328613
aF1.3530538082122803
aF-2.2252025604248047
aF0.045349929481744766
aF-1.4906147718429565
aF-2.4965057373046875
aF-1.8883506059646606
aF0.26980796456336975
aF-0.3938719928264618
aF1.4619115591049194
aF0.18450352549552917
aF-0.32216453552246094
aF0.12249156087636948
aF-0.573675811290741
aF0.9958694577217102
aF0.7641721963882446
aF0.5056633949279785
aF0.6157424449920654
aF-0.4611094892024994
aF0.39564645290374756
aF0.5143694281578064
aF-0.979293704032898
aF0.8169994354248047
aF0.9888578653335571
aF0.0361822135746479
aF-0.007313880138099194
aF-0.1722128838300705
aF0.5047672986984253
aF-0.24742376804351807
aF-1.2332775592803955
aF0.017128804698586464
aF1.3588893413543701
aF-1.702276349067688
aF0.08417997509241104
aF0.4745246171951294
aF0.624457836151123
aF-0.8861973881721497
aF-0.36506521701812744
aF0.050450582057237625
aF-0.5548191070556641
aF0.6392142176628113
aF1.2731939554214478
aF0.26954159140586853
aF1.0991390943527222
aF-0.027852047234773636
aF-0.2515210211277008
aF-0.7377439737319946
aF-0.02395707182586193
aF1.2115910053253174
aF-0.5674213767051697
aF-1.5853620767593384
aF0.9182164072990417
aF1.023403525352478
aF0.45763298869132996
aF0.3595416247844696
aF0.7581295967102051
aF0.2072613388299942
aF-2.9098124504089355
aF0.5289891362190247
aF-1.2327046394348145
aF0.2944897413253784
aF0.4246501922607422
aF-0.6838417649269104
aF1.0604065656661987
aF0.3710590898990631
aF-1.0354963541030884
aF-0.33265894651412964
aF1.7344937324523926
aF1.2194186449050903
aF0.6842352151870728
aF-0.508378803730011
aF-0.9544240236282349
aF0.6066479086875916
aF-0.7972406148910522
aF1.0635392665863037
aF0.7785815596580505
aF-0.5300171971321106
aF-0.6228428483009338
aF-0.7363983988761902
aF-0.2762331962585449
aF-0.29153308272361755
aF0.24647928774356842
aF1.0217971801757812
aF0.7182955145835876
aF1.211891770362854
aF0.06755053251981735
aF-0.9458229541778564
aF0.5486940145492554
aF0.3972598612308502
aF0.6536417603492737
aF-0.1785881519317627
aF0.9522080421447754
aF-0.9431763887405396
aF1.4031703472137451
aF-0.6195451021194458
aF0.9203698039054871
aF1.3172329664230347
aF-0.8524004220962524
aF-2.132471799850464
aF-0.6830307841300964
aF0.17420333623886108
aF-1.9881271123886108
aF0.918453574180603
aF-1.5974222421646118
aF0.8000251054763794
aF-0.514094889163971
aF-0.1383700668811798
aF1.013697624206543
aF-0.19789272546768188
aF2.8867735862731934
aF-0.9166906476020813
aF0.0025597771164029837
aF-0.04150001332163811
aF-3.3253591060638428
aF0.9507810473442078
aF0.44111868739128113
aF-1.2513800859451294
aF-0.24581274390220642
aF-0.2377367615699768
aF0.3189728856086731
aF1.2258514165878296
aF-0.6050167083740234
aF-0.8332954049110413
aF-0.6253745555877686
aF0.7852857112884521
aF-1.9935115575790405
aF-0.5287892818450928
aF-1.5911446809768677
aF-0.6770732998847961
aF-1.1754343509674072
aF-0.8608130812644958
aF1.305099368095398
aF-0.9990490078926086
aF-0.7485692501068115
aF-1.9175682067871094
aF-0.33532747626304626
aF-0.40745818614959717
aF-1.5734716653823853
aF-1.15290367603302
aF-1.0216649770736694
aF2.0777881145477295
aF0.33923956751823425
aF-0.3084392547607422
aF2.697072744369507
aF0.8917912840843201
aF1.0579873323440552
aF0.09672272950410843
aF2.3324952125549316
aF0.32848426699638367
aF0.6163701415061951
aF1.0507999658584595
aF-0.5098568797111511
aF1.1931411027908325
aF-0.978495717048645
aF1.4936400651931763
aF-0.33552250266075134
aF0.451687753200531
aF0.5886841416358948
aF0.6861708164215088
aF0.4639737606048584
aF1.6855053901672363
aF-1.9110957384109497
aF0.8046181797981262
aF1.6009314060211182
aF0.45359349250793457
aF2.3589422702789307
aF0.5108660459518433
aF-2.1964433193206787
aF1.0648961067199707
aF0.5432387590408325
aF0.18386100232601166
aF1.6614209413528442
aF-0.24617129564285278
aF-0.2637442350387573
aF-0.481022447347641
aF2.3035106658935547
aF-0.25857868790626526
aF1.195125699043274
aF0.06766600906848907
aF1.6929949522018433
aF-0.9985541701316833
aF0.19388891756534576
aF0.013520367443561554
aF1.1448200941085815
aF0.5249560475349426
aF-0.25515443086624146
aF-0.6113891005516052
aF0.4357825219631195
aF-1.116553783416748
aF-0.382771760225296
aF-0.33735397458076477
aF-0.5497875213623047
aF0.6175146698951721
aF1.657946228981018
aF-0.3879986107349396
aF0.08241774886846542
aF-1.5426111221313477
aF0.7285176515579224
aF-0.3350505828857422
aF-0.30493900179862976
aF0.94400554895401
aF0.41755425930023193
aF0.08184494823217392
aF0.2138596475124359
aF-0.42728206515312195
aF0.28177449107170105
aF-0.7797389030456543
aF0.47456154227256775
aF-0.8801790475845337
aF0.3474085032939911
aF0.4247928559780121
aF0.7526289820671082
aF0.7502697110176086
aF-0.39926499128341675
aF0.9446565508842468
aF0.03961309790611267
aF0.4178021252155304
aF-2.673281192779541
aF-1.4776109457015991
aF-0.1978961080312729
aF-0.9354764819145203
aF0.31121939420700073
aF-0.5133529305458069
aF0.878652811050415
aF1.7305430173873901
aF-0.5371682643890381
aF1.231129765510559
aF-0.48444923758506775
aF-0.24963553249835968
aF1.2271089553833008
aF-2.0432584285736084
aF-0.5906181931495667
aF1.3577154874801636
aF0.250468909740448
aF-1.5787073373794556
aF0.9282798171043396
aF0.3386685252189636
aF0.09190461784601212
aF-0.4842054545879364
aF1.6648751497268677
aF-0.2896018624305725
aF0.15671272575855255
aF0.4323725402355194
aF2.154121160507202
aF-0.3074634075164795
aF-0.9721081852912903
aF1.8710789680480957
aF0.006954991724342108
aF1.3187085390090942
aF-0.002573108533397317
aF0.2079003006219864
aF-0.636641800403595
aF0.8991881012916565
aF1.0099412202835083
aF0.7029649615287781
aF-0.5224143266677856
aF-0.9198434948921204
aF-0.6867232322692871
aF-0.326530784368515
aF0.12571880221366882
aF-1.3232643604278564
aF-0.846804141998291
aF1.1959657669067383
aF0.19467401504516602
aF0.625636637210846
aF1.7100732326507568
aF-1.4226936101913452
aF-1.525431513786316
aF0.252828985452652
aF-0.8476639986038208
aF1.1266223192214966
aF0.5928788185119629
aF-0.6671310067176819
aF1.120356798171997
aF1.377518892288208
aF-1.3602228164672852
aF0.6412564516067505
aF-0.7710002660751343
aF-1.3977590799331665
aF-0.41526710987091064
aF0.23159003257751465
aF-0.3032305836677551
aF-0.044144898653030396
aF-1.6101099252700806
aF-2.7990777492523193
aF-0.8556683659553528
aF-0.39488282799720764
aF1.464468002319336
aF0.5899004936218262
aF1.4067926406860352
aF0.019431911408901215
aF-0.7192302942276001
aF1.0045350790023804
aF0.16693653166294098
aF-0.6292901039123535
aF0.10767289251089096
aF0.37623944878578186
aF-0.3588840067386627
aF1.323003888130188
aF-0.7268909811973572
aF-0.14663738012313843
aF0.10353395342826843
aF0.1252153068780899
aF-0.9318112730979919
aF-0.09015893191099167
aF-0.657193124294281
aF-1.5002398490905762
aF1.1691406965255737
aF0.5028918385505676
aF1.1567578315734863
aF1.3590577840805054
aF-0.10004813224077225
aF-1.6104427576065063
aF0.7856417894363403
aF-0.289449006319046
aF-1.1167635917663574
aF-0.25310471653938293
aF0.0408242903649807
aF1.2024377584457397
aF2.7004265785217285
aF-0.880012035369873
aF3.062831401824951
aF-0.5863651633262634
aF0.044995326548814774
aF1.2993335723876953
aF-2.73585844039917
aF-1.1688944101333618
aF-0.6341983675956726
aF-0.3465433716773987
aF-1.0578783750534058
aF1.6335862874984741
aF-1.4265066385269165
aF0.09440927952528
aF0.8831896781921387
aF-0.22548112273216248
aF2.829660415649414
aF1.0726895332336426
aF0.795320451259613
aF1.74666166305542
aF1.7171539068222046
aF-0.39653119444847107
aF-1.3452664613723755
aF-0.2506411373615265
aF-0.12086087465286255
aF1.4019831418991089
aF-0.7590371966362
aF-0.7423110604286194
aF0.1546366661787033
aF1.0319796800613403
aF-1.9566888809204102
aF-0.9821550250053406
aF0.18756815791130066
aF0.7153525948524475
aF0.044737908989191055
aF-2.230738401412964
aF0.0909123420715332
aF0.5166741609573364
aF-0.019752301275730133
aF0.9357503056526184
aF1.3833659887313843
aF0.2775460183620453
aF0.5332435965538025
aF0.4996214807033539
aF-1.3272583484649658
aF0.3526408076286316
aF0.5535874962806702
aF0.621252179145813
aF1.1586415767669678
aF0.3788168728351593
aF0.3743079602718353
aF-0.9015386700630188
aF0.6787562966346741
aF0.6680645942687988
aF-0.7805457711219788
aF-0.8640435934066772
aF-1.5682199001312256
aF-0.9842334389686584
aF-0.18700234591960907
aF0.7923421859741211
aF-1.7458575963974
aF-0.0013259941479191184
aF1.0973117351531982
aF-0.8883132934570312
aF-0.7108058333396912
aF-0.04746728762984276
aF0.3394436240196228
aF0.8362005352973938
aF-0.9109044671058655
aF0.10438024997711182
aF0.608120322227478
aF-0.9483708143234253
aF-0.12965169548988342
aF0.4081844389438629
aF1.2847646474838257
aF-0.3974442780017853
aF-0.6858038306236267
aF-0.487305223941803
aF0.3052891790866852
aF0.15228798985481262
aF-0.9276009202003479
aF-1.3925532102584839
aF-0.8574533462524414
aF-2.2919774055480957
aF-0.011065661907196045
aF1.8657052516937256
aF1.6506760120391846
aF0.6674396991729736
aF1.6334701776504517
aF-1.028975009918213
aF-1.613210678100586
aF0.6316688060760498
aF0.13615617156028748
aF-0.5293777585029602
aF-0.29381540417671204
aF-0.28009358048439026
aF1.223618745803833
aF0.40738943219184875
aF0.24228186905384064
aF0.0695665031671524
aF-1.068213939666748
aF0.8416500091552734
aF-0.7932384014129639
aF-1.2579437494277954
aF-1.1609504222869873
aF1.6020480394363403
aF1.3505743741989136
aF-2.256382465362549
aF1.3482835292816162
aF-0.6514362692832947
aF0.19102847576141357
aF-0.8308113217353821
aF-2.1378562450408936
aF0.22525471448898315
aF-1.4331644773483276
aF-1.1976701021194458
aF0.2804664671421051
aF-0.8449084162712097
aF-0.8637096881866455
aF-1.1249444484710693
aF-1.8951176404953003
aF-1.1671494245529175
aF-0.08578763157129288
aF0.62005615234375
aF0.8170388340950012
aF0.44139885902404785
aF0.37393584847450256
aF-1.1270960569381714
aF1.091187834739685
aF-0.1743895709514618
aF-0.3788658082485199
aF1.0179359912872314
aF-1.6714903116226196
aF-0.7596890330314636
aF-1.4060200452804565
aF-4.0880351066589355
aF1.1628329753875732
aF0.8184383511543274
aF-1.2892942428588867
aF0.9878311157226562
aF0.5576267242431641
aF-1.3221111297607422
aF-0.08746118098497391
aF-0.570659339427948
aF0.026347104460000992
aF0.5054778456687927
aF0.5581551790237427
aF-0.09707258641719818
aF-1.2340466976165771
aF-1.7768621444702148
aF0.5506710410118103
aF0.8593842387199402
aF-0.12379176914691925
aF-0.08001628518104553
aF-0.22609373927116394
aF-0.5257468223571777
aF-1.1759158372879028
aF-1.1876739263534546
aF0.8089233636856079
aF-0.4995328485965729
aF-0.007336038164794445
aF-0.28278735280036926
aF-0.0006015810067765415
aF2.7383790016174316
aF1.6888452768325806
aF1.0227736234664917
aF0.3552846312522888
aF0.41914600133895874
aF-0.7009317278862
aF-1.056450605392456
aF1.7514324188232422
aF1.3794554471969604
aF0.09489386528730392
aF-0.7711493968963623
aF1.5891382694244385
aF1.8128223419189453
aF0.17545470595359802
aF1.448233723640442
aF-0.7774445414543152
aF0.3629092872142792
aF1.468380093574524
aF-0.349761426448822
aF-0.6175139546394348
aF-1.4343550205230713
aF0.30372726917266846
aF0.40850332379341125
aF0.09567821770906448
aF-1.1797677278518677
aF-0.29773733019828796
aF-0.04597664624452591
aF-0.289605975151062
aF1.0053905248641968
aF0.21773751080036163
aF0.34213554859161377
aF2.8331665992736816
aF-0.03894784674048424
aF-0.26146042346954346
aF-1.0404927730560303
aF1.6809909343719482
aF-0.7272457480430603
aF0.18270820379257202
aF-2.3028275966644287
aF2.9063563346862793
aF2.7493908405303955
aF-1.6757441759109497
aF-0.8919819593429565
aF0.32073891162872314
aF-1.06650972366333
aF0.41171467304229736
aF-0.770110547542572
aF2.0334246158599854
aF0.26806509494781494
aF0.025177329778671265
aF0.6118775010108948
aF0.9900282025337219
aF1.1015716791152954
aF-0.6285318732261658
aF-0.1893390715122223
aF-0.5100814700126648
aF0.14088979363441467
aF-0.0062394035048782825
aF0.567051351070404
aF-1.2357041835784912
aF-0.7966616749763489
aF-0.8635714054107666
aF-0.9922693371772766
aF0.5408528447151184
aF0.08576524257659912
aF-0.7163611054420471
aF0.6824089884757996
aF-0.398263156414032
aF-0.4562143087387085
aF-2.0276706218719482
aF-0.14988714456558228
aF2.2411248683929443
aF1.8235313892364502
aF-2.0253100395202637
aF-0.3050372004508972
aF-1.271612524986267
aF-0.1946161985397339
aF-0.0004283281450625509
aF-0.005698017776012421
aF0.6593776941299438
aF-0.4207253158092499
aF-0.1730886548757553
aF-2.0351736545562744
aF-0.3304290473461151
aF1.51051664352417
aF-0.7562965154647827
aF-0.3454088270664215
aF1.050540804862976
aF1.4035290479660034
aF-1.5946292877197266
aF0.07379385828971863
aF1.2378472089767456
aF0.13952942192554474
aF0.18404735624790192
aF0.12879793345928192
aF1.549497365951538
aF0.1786285638809204
aF-0.6619352698326111
aF-0.2664251923561096
aF-0.45009419322013855
aF0.40437284111976624
aF-1.0657751560211182
aF-0.6492362022399902
aF0.2656293511390686
aF1.0866384506225586
aF-2.6172707080841064
aF0.9509974718093872
aF0.9502091407775879
aF-0.3700718879699707
aF-0.27202069759368896
aF-0.32300180196762085
aF0.5442262291908264
aF-0.1435626596212387
aF-1.4826573133468628
aF0.833605945110321
aF0.6414474844932556
aF1.3012701272964478
aF-1.4730682373046875
aF-1.047561526298523
aF-1.2491546869277954
aF-0.21989427506923676
aF0.17676447331905365
aF1.6910820007324219
aF-1.097409725189209
aF0.025428714230656624
aF1.0050157308578491
aF1.141532301902771
aF-0.06631577759981155
aF-0.5396307110786438
aF-0.48112958669662476
aF1.1757630109786987
aF0.05240432173013687
aF0.7995135188102722
aF-1.4151270389556885
aF-2.2580602169036865
aF1.6145817041397095
aF0.23734571039676666
aF1.5870163440704346
aF-0.00869359727948904
aF-1.219488263130188
aF0.6204761862754822
aF-0.7722600698471069
aF-0.04853780195116997
aF-0.030705947428941727
aF2.048443555831909
aF0.18717968463897705
aF-0.020080730319023132
aF-0.6985433101654053
aF1.1854581832885742
aF-1.1410059928894043
aF0.9472498893737793
aF1.0099598169326782
aF0.8861713409423828
aF0.7057701945304871
aF0.17156192660331726
aF-1.2434016466140747
aF1.3468338251113892
aF-2.3148274421691895
aF-1.895213007926941
aF-0.26109302043914795
aF-0.4366997480392456
aF0.08974971622228622
aF0.7337661981582642
aF0.27472180128097534
aF-2.1295788288116455
aF-1.3501299619674683
aF0.33562102913856506
aF-0.41091907024383545
aF0.05178599804639816
aF1.6242552995681763
aF2.4183449745178223
aF-1.3157185316085815
aF-1.200334906578064
aF1.1219160556793213
aF0.8608865737915039
aF1.8908283710479736
aF0.1042201966047287
aF0.8393294215202332
aF1.469501256942749
aF0.07797685265541077
aF0.48327842354774475
aF0.4872639775276184
aF1.328406810760498
aF0.05089551955461502
aF-1.0335921049118042
aF1.0496513843536377
aF0.7073350548744202
aF-0.07334309816360474
aF0.3262138366699219
aF-0.7663286328315735
aF-0.45713409781455994
aF0.589105486869812
aF2.3029048442840576
aF-0.4792407155036926
aF0.6253454685211182
aF-0.9186124801635742
aF-0.45846399664878845
aF-0.7079007625579834
aF-1.069625973701477
aF0.34078359603881836
aF1.6091821193695068
aF1.0956100225448608
aF-0.18544350564479828
aF-0.38712748885154724
aF-0.10478624701499939
aF-0.11285024136304855
aF1.0454528331756592
aF0.5600758194923401
aF0.33861589431762695
aF-0.31393036246299744
aF-1.1027653217315674
aF-0.9763390421867371
aF-1.1411588191986084
aF0.1882009655237198
aF-1.650333046913147
aF1.3790559768676758
aF0.17374052107334137
aF-0.5022873282432556
aF-1.8787081241607666
aF-0.3607117533683777
aF0.0009557699086144567
aF1.5562903881072998
aF-0.7518817186355591
aF-1.1368217468261719
aF-1.6844542026519775
aF1.2413384914398193
aF1.3328393697738647
aF-1.7777702808380127
aF1.0573903322219849
aF2.4633007049560547
aF0.65733402967453
aF-0.6037188172340393
aF1.2543165683746338
aF0.18655282258987427
aF-0.416012167930603
aF0.4315424859523773
aF0.6113230586051941
aF1.3568977117538452
aF-1.8354507684707642
aF-1.2777130603790283
aF0.9209395051002502
aF0.12214817851781845
aF-0.9843392372131348
aF-0.9498804807662964
aF-0.23126624524593353
aF0.06531835347414017
aF-1.3823386430740356
aF-0.3300544023513794
aF-0.2570796012878418
aF0.017045795917510986
aF0.7613321542739868
aF0.8584719300270081
aF-2.467874526977539
aF0.7991213202476501
aF1.5909472703933716
aF-0.169577494263649
aF1.0598785877227783
aF-0.050954420119524
aF-1.036989450454712
aF-1.3807010650634766
aF-2.2785558700561523
aF0.19908271729946136
aF-0.860718309879303
aF0.7534624338150024
aF-0.26239603757858276
aF0.4970020353794098
aF0.6782078146934509
aF0.28048965334892273
aF-0.9442045092582703
aF0.5705288052558899
aF-1.7923263311386108
aF0.45205846428871155
aF1.0395256280899048
aF0.7659389972686768
aF-0.9704023003578186
aF-0.6771911978721619
aF-0.3544999063014984
aF-0.7111650109291077
aF1.5602145195007324
aF-0.957281768321991
aF-1.1825306415557861
aF-0.5099071860313416
aF-0.4321852922439575
aF0.6510716080665588
aF0.2840830087661743
aF0.059240952134132385
aF-1.8416937589645386
aF-1.0383766889572144
aF-1.5525195598602295
aF0.026290085166692734
aF1.597812533378601
aF1.7321364879608154
aF1.6592535972595215
aF0.023683127015829086
aF0.6596211194992065
aF-0.22864563763141632
aF0.5908383727073669
aF0.8773195147514343
aF0.41242679953575134
aF0.3927064538002014
aF-3.1953656673431396
aF-1.0986300706863403
aF2.3396778106689453
aF2.1148972511291504
aF0.6245593428611755
aF0.6032906174659729
aF-0.8038002848625183
aF1.1878736019134521
aF-1.0107871294021606
aF-1.127171277999878
aF0.6300275325775146
aF-1.2737258672714233
aF1.1423976421356201
aF-1.259084701538086
aF-1.68137788772583
aF0.9375510215759277
aF0.22512876987457275
aF-0.25171568989753723
aF-1.0791434049606323
aF-0.4153478741645813
aF-1.3428757190704346
aF0.5519737005233765
aF0.18853123486042023
aF-0.5400199890136719
aF-0.22063814103603363
aF-0.36714470386505127
aF-0.5866891741752625
aF-0.10333042591810226
aF-0.5403058528900146
aF0.44750654697418213
aF-0.8700463771820068
aF1.375248908996582
aF-0.117589570581913
aF-1.1939878463745117
aF2.428339958190918
aF-0.6898284554481506
aF0.8756340146064758
aF-0.981743574142456
aF1.1554971933364868
aF0.6993160843849182
aF0.7249616980552673
aF-1.6415479183197021
aF-1.1224679946899414
aF1.1586703062057495
aF-0.841699481010437
aF1.2932361364364624
aF1.0784403085708618
aF0.29606562852859497
aF0.9545055031776428
aF-0.30243468284606934
aF0.28465235233306885
aF-0.16357555985450745
aF0.7541561722755432
aF-1.0186940431594849
aF0.657558023929596
aF-0.008567175827920437
aF-0.4287523627281189
aF-0.3108229637145996
aF0.7748376131057739
aF-1.022803544998169
aF0.023578889667987823
aF1.8047425746917725
aF0.5949206352233887
aF-1.5958373546600342
aF-1.0180068016052246
aF0.47421666979789734
aF0.19776830077171326
aF-0.7867544293403625
aF0.29123786091804504
aF-0.7216329574584961
aF0.2347695231437683
aF1.560943365097046
aF0.1812881976366043
aF-0.49129191040992737
aF0.7144817113876343
aF-1.0077502727508545
aF1.0756325721740723
aF1.0363309383392334
aF-1.1111778020858765
aF-0.6190218329429626
aF0.6303051114082336
aF0.483547180891037
aF-0.02249087020754814
aF0.3953167200088501
aF0.5170481204986572
aF-0.746165931224823
aF-1.2099236249923706
aF-0.4933929145336151
aF1.2593103647232056
aF-1.4717276096343994
aF0.24070537090301514
aF-0.8232834935188293
aF1.4328398704528809
aF-0.9876055717468262
aF1.8943755626678467
aF1.6716773509979248
aF-0.14465422928333282
aF1.2321243286132812
aF0.6913790106773376
aF1.8509646654129028
aF2.3248608112335205
aF-0.0868239775300026
aF-0.32701972126960754
aF-0.13961519300937653
aF-2.1563913822174072
aF0.7137762308120728
aF-0.2852514088153839
aF1.2970935106277466
aF1.665161371231079
aF-0.46510374546051025
aF-0.5902592539787292
aF-0.05339081585407257
aF0.49422547221183777
aF1.1875081062316895
aF0.957865297794342
aF-0.813340961933136
aF-1.1117383241653442
aF1.2220832109451294
aF0.4952915608882904
aF1.5348087549209595
aF-0.8439207077026367
aF-0.4976840913295746
aF-0.5675689578056335
aF0.882204532623291
aF-0.1734359711408615
aF0.6870129108428955
aF0.8768060207366943
aF0.3113367259502411
aF0.4865089952945709
aF2.6907098293304443
aF0.41001126170158386
aF1.645258903503418
aF0.0979023352265358
aF0.8091647028923035
aF-0.06562427431344986
aF1.240114450454712
aF-0.24837709963321686
aF-0.02188549004495144
aF0.4128592908382416
aF1.6910568475723267
aF-0.14706380665302277
aF-0.064999520778656
aF-0.8624787330627441
aF-0.513526439666748
aF0.2867993116378784
aF-2.023228883743286
aF-1.2140637636184692
aF0.7799263596534729
aF-0.17469042539596558
aF0.3070859909057617
aF-0.5924006104469299
aF-0.5094709992408752
aF0.3955799639225006
aF-1.5004301071166992
aF0.9735410213470459
aF-1.6654419898986816
aF1.2672561407089233
aF0.7961685657501221
aF0.09457580000162125
aF0.511436402797699
aF-1.0952908992767334
aF-0.18093377351760864
aF0.28216809034347534
aF0.5175619125366211
aF-0.13755029439926147
aF2.38120174407959
aF-1.4952832460403442
aF0.23660103976726532
aF0.5460630655288696
aF-0.7469737529754639
aF-1.754781723022461
aF0.08849926292896271
aF-0.01903737336397171
aF-1.5655608177185059
aF-0.5178290605545044
aF-1.5149776935577393
aF1.8267168998718262
aF1.0922915935516357
aF0.08222771435976028
aF-0.3781346380710602
aF-0.043439507484436035
aF0.47773072123527527
aF0.7983567714691162
aF0.19632820785045624
aF1.488774061203003
aF-0.15268638730049133
aF-0.7622560262680054
aF-0.0016668220050632954
aF-0.7948994636535645
aF0.3123333752155304
aF-0.21837614476680756
aF-2.028526782989502
aF1.450486421585083
aF0.6282297968864441
aF0.23742613196372986
aF0.18601001799106598
aF0.677847146987915
aF1.1875611543655396
aF1.6785674095153809
aF0.10503872483968735
aF-0.26801520586013794
aF0.5405323505401611
aF1.460994839668274
aF0.46878582239151
aF-1.2014718055725098
aF-0.3732026517391205
aF0.021796299144625664
aF0.7703713178634644
aF2.1291050910949707
aF-0.726977527141571
aF-1.0820242166519165
aF-0.0015124109340831637
aF0.3389710485935211
aF0.2587621510028839
aF0.20827645063400269
aF1.0380520820617676
aF-0.8192020654678345
aF1.5256571769714355
aF-0.8237892985343933
aF-1.2259360551834106
aF-0.4633910059928894
aF-1.0922389030456543
aF-0.9698580503463745
aF0.6505093574523926
aF0.317383348941803
aF0.39762067794799805
aF0.3288829028606415
aF1.5968695878982544
aF0.650702953338623
aF1.8290561437606812
aF0.5423181653022766
aF0.9244022369384766
aF0.3407689332962036
aF0.6723380088806152
aF0.9851095676422119
aF-2.0955843925476074
aF1.451059103012085
aF1.3424248695373535
aF-1.151444911956787
aF-0.2773820757865906
aF1.0709115266799927
aF-0.3459518253803253
aF0.14675112068653107
aF0.9386500716209412
aF-1.051395058631897
aF-0.3692890405654907
aF0.4118189215660095
aF1.3154128789901733
aF0.9855362772941589
aF-0.6562516689300537
aF-0.37054207921028137
aF-1.0155861377716064
aF-0.5042431950569153
aF0.17248813807964325
aF-1.0076916217803955
aF-1.3683271408081055
aF-0.39783817529678345
aF0.4456775486469269
aF-0.19051745533943176
aF0.30386197566986084
aF0.7888148427009583
aF1.860832691192627
aF-0.0847233459353447
aF-1.524113655090332
aF0.7299946546554565
aF0.48605555295944214
aF1.6800365447998047
aF1.0903985500335693
aF0.4501893222332001
aF0.8329252004623413
aF0.2535823583602905
aF0.52082759141922
aF0.39758819341659546
aF-1.3860682249069214
aF0.7818916440010071
aF1.078306794166565
aF-1.110556721687317
aF-1.3874406814575195
aF0.2552725672721863
aF-0.5493678450584412
aF0.6549564599990845
aF-1.0828750133514404
aF0.4691712558269501
aF-0.1886248141527176
aF1.771284818649292
aF-2.079418182373047
aF-1.2256454229354858
aF-0.07324711233377457
aF0.7808011770248413
aF0.2967208921909332
aF-0.6614143252372742
aF-0.963518500328064
aF-0.13388365507125854
aF0.36794424057006836
aF-0.09603526443243027
aF0.5870367884635925
aF-2.0465333461761475
aF-0.9721605181694031
aF0.39578330516815186
aF0.2975567877292633
aF0.6292710304260254
aF-0.7524182200431824
aF-1.3057447671890259
aF2.2221791744232178
aF-0.5127837657928467
aF0.8091986179351807
aF-0.2505125403404236
aF-0.09912362694740295
aF-0.9977433681488037
aF0.007530964910984039
aF-0.3452865779399872
aF1.8278909921646118
aF-1.5569498538970947
aF-2.627063512802124
aF-0.268113911151886
aF-0.2843998372554779
aF1.6346982717514038
aF-1.9594292640686035
aF2.1980321407318115
aF0.7579030990600586
aF-0.9957939386367798
aF-1.3750756978988647
aF0.8518612384796143
aF0.19359330832958221
aF-1.0159952640533447
aF-0.6375007033348083
aF-0.44362872838974
aF1.1679342985153198
aF0.16159237921237946
aF-1.1775280237197876
aF0.9181522130966187
aF1.0379678010940552
aF-1.43119215965271
aF0.4050354063510895
aF1.5395481586456299
aF-2.31791353225708
aF0.974579930305481
aF-0.012802476063370705
aF-0.04282520338892937
aF1.7969706058502197
aF0.8382226228713989
aF0.4960241913795471
aF-1.99478280544281
aF-1.378551721572876
aF-0.18735896050930023
aF-0.5662742257118225
aF0.06162848696112633
aF-0.8185389041900635
aF-0.9415151476860046
aF-0.21793489158153534
aF-0.11666327714920044
aF1.0252902507781982
aF1.5574297904968262
aF2.179155111312866
aF-1.0655996799468994
aF0.20576423406600952
aF-0.7904542684555054
aF-0.32298704981803894
aF-1.4700552225112915
aF1.1113096475601196
aF0.05548058822751045
aF0.3452269732952118
aF0.47622716426849365
aF-1.208350658416748
aF0.1215333491563797
aF-1.840661644935608
aF0.14713425934314728
aF-2.319973945617676
aF1.2394378185272217
aF-1.2195279598236084
aF-0.10765109956264496
aF0.4866524636745453
aF1.1224570274353027
aF0.8976688981056213
aF0.34367844462394714
aF-1.2598055601119995
aF-0.3608773648738861
aF0.4975384473800659
aF0.6616020202636719
aF-1.7489242553710938
aF2.2704992294311523
aF-0.4865838289260864
aF1.4445679187774658
aF-0.5506647229194641
aF-1.5188111066818237
aF0.6267886757850647
aF0.12547622621059418
aF-0.2997812032699585
aF1.1525425910949707
aF-0.7898883819580078
aF-0.3774438500404358
aF0.6866133213043213
aF0.9545530080795288
aF-1.4252063035964966
aF-0.6115233898162842
aF-0.5992670655250549
aF0.6880823969841003
aF0.9657753109931946
aF-0.05807500705122948
aF-1.1226587295532227
aF0.7557816505432129
aF0.3332022726535797
aF0.2937617897987366
aF1.3256642818450928
aF-1.4925755262374878
aF-1.4196033477783203
aF0.267375111579895
aF0.9086660146713257
aF0.6489467620849609
aF-0.6933111548423767
aF0.25714871287345886
aF-1.6577584743499756
aF-0.29572415351867676
aF1.5142035484313965
aF0.11535359174013138
aF-0.21345537900924683
aF-0.5220188498497009
aF0.9254657626152039
aF1.4294401407241821
aF-1.9219050407409668
aF0.16550591588020325
aF0.40324312448501587
aF0.6387589573860168
aF0.29398664832115173
aF0.5686657428741455
aF-0.5292834043502808
aF0.24563607573509216
aF0.6982718706130981
aF-1.8765990734100342
aF-0.9084888100624084
aF-0.984874963760376
aF-0.2908491790294647
aF-1.6600399017333984
aF1.51418936252594
aF-0.6720296740531921
aF0.527671217918396
aF-0.7845517992973328
aF-0.357647180557251
aF0.9921837449073792
aF2.7937448024749756
aF-0.777428150177002
aF0.9363514184951782
aF2.7635555267333984
atp62
Rp63
I0
(I343
I5
tp64
(I5
I1
tp65
I01
Ntp66
Rp67
aatp68
Rp69
sS'scale_grad_by_freq'
p70
I00
sS'_buffers'
p71
g8
((lp72
tp73
Rp74
sS'training'
p75
I01
sS'max_norm'
p76
Nsbaa(lp77
S'lstm'
p78
ag0
(ctorch.nn.modules.rnn
LSTM
p79
g2
Ntp80
Rp81
(dp82
S'batch_first'
p83
I00
sg7
g8
((lp84
tp85
Rp86
sg12
g8
((lp87
tp88
Rp89
sg16
g18
sS'_all_weights'
p90
(lp91
(lp92
S'weight_ih_l0'
p93
aS'weight_hh_l0'
p94
aS'bias_ih_l0'
p95
aS'bias_hh_l0'
p96
aa(lp97
S'weight_ih_l0_reverse'
p98
aS'weight_hh_l0_reverse'
p99
aS'bias_ih_l0_reverse'
p100
aS'bias_hh_l0_reverse'
p101
aasS'dropout'
p102
I0
sg26
g8
((lp103
tp104
Rp105
sg30
g8
((lp106
tp107
Rp108
sg55
g8
((lp109
(lp110
g93
ag59
(g60
((lp111
F1.1208717823028564
aF-0.6978837251663208
aF-1.4362103939056396
aF-0.18665677309036255
aF1.938989520072937
aF-1.0660231113433838
aF-0.9328117370605469
aF1.0254780054092407
aF-0.9738908410072327
aF0.7605849504470825
aF1.456099510192871
aF0.3318408131599426
aF0.07738126069307327
aF-0.8662798404693604
aF1.1871178150177002
aF0.1253165304660797
aF1.336712121963501
aF-0.29009532928466797
aF0.744579017162323
aF-0.7141215205192566
aF-1.5684545040130615
aF1.2000707387924194
aF-1.7660490274429321
aF0.8125843405723572
aF-2.430346727371216
aF-0.30606508255004883
aF1.653144359588623
aF-0.5687967538833618
aF2.111536741256714
aF0.8336732387542725
aF0.03386164456605911
aF-1.2752115726470947
aF1.6655911207199097
aF-0.17565949261188507
aF1.498096227645874
aF-1.4640755653381348
aF0.7072916626930237
aF-0.35142165422439575
aF1.2277491092681885
aF1.2504340410232544
atp112
Rp113
I0
(I8
I5
tp114
(I5
I1
tp115
I01
Ntp116
Rp117
aa(lp118
g94
ag59
(g60
((lp119
F-0.3163089454174042
aF-0.2007686197757721
aF0.30147138237953186
aF-0.39884045720100403
aF0.6874252557754517
aF0.742509663105011
aF-0.1433916836977005
aF0.5596836805343628
aF-0.3594169616699219
aF-0.4696786403656006
aF-0.24083749949932098
aF-1.2719922065734863
aF0.2058420032262802
aF0.6386700868606567
aF-0.74106365442276
aF-0.08138394355773926
atp120
Rp121
I0
(I8
I2
tp122
(I2
I1
tp123
I01
Ntp124
Rp125
aa(lp126
g95
ag59
(g60
((lp127
F0.39141255617141724
aF0.8202720284461975
aF-0.44028204679489136
aF-0.9945296049118042
aF1.0444567203521729
aF-0.33347755670547485
aF1.006050944328308
aF-0.24643874168395996
atp128
Rp129
I0
(I8
tp130
(I1
tp131
I01
Ntp132
Rp133
aa(lp134
g96
ag59
(g60
((lp135
F0.7292417287826538
aF0.6379995942115784
aF-0.21797218918800354
aF-0.17244313657283783
aF0.4645872116088867
aF0.5119137763977051
aF0.6010605096817017
aF-0.6490891575813293
atp136
Rp137
I0
(I8
tp138
(I1
tp139
I01
Ntp140
Rp141
aa(lp142
g98
ag59
(g60
((lp143
F0.8403288125991821
aF-0.5284570455551147
aF0.2848486006259918
aF-0.39686787128448486
aF-0.0576322004199028
aF-0.4353545010089874
aF-0.3405556380748749
aF0.0463646799325943
aF0.2668147385120392
aF-1.030356764793396
aF-0.5630356669425964
aF0.6833955645561218
aF-0.7946313619613647
aF-0.17799581587314606
aF0.14748500287532806
aF0.22289910912513733
aF0.3264435827732086
aF-1.1932377815246582
aF-1.0732039213180542
aF0.6812816262245178
aF0.17115366458892822
aF-0.9540367126464844
aF0.108224056661129
aF-0.6256768107414246
aF1.2425098419189453
aF1.6680864095687866
aF-1.198551893234253
aF0.2896474003791809
aF-2.077873706817627
aF0.2516363561153412
aF0.591383695602417
aF-0.5550111532211304
aF-0.5034666657447815
aF0.14712519943714142
aF-0.04224512353539467
aF-0.860130786895752
aF-0.41851648688316345
aF-0.9997937083244324
aF-1.3342028856277466
aF-1.7208125591278076
atp144
Rp145
I0
(I8
I5
tp146
(I5
I1
tp147
I01
Ntp148
Rp149
aa(lp150
g99
ag59
(g60
((lp151
F-0.36092203855514526
aF0.04156918078660965
aF0.6012917160987854
aF-0.06981685012578964
aF-0.28187891840934753
aF-0.3518660068511963
aF0.5206601023674011
aF0.08475795388221741
aF-0.29433539509773254
aF-0.02079814299941063
aF0.47686484456062317
aF-0.9127065539360046
aF0.33925098180770874
aF0.4799554646015167
aF0.05875413492321968
aF0.2684762477874756
atp152
Rp153
I0
(I8
I2
tp154
(I2
I1
tp155
I01
Ntp156
Rp157
aa(lp158
g100
ag59
(g60
((lp159
F-0.2268543243408203
aF0.41180574893951416
aF0.5462722182273865
aF-1.0340988636016846
aF-0.3397105932235718
aF0.1782025694847107
aF-0.17995965480804443
aF-0.4574989676475525
atp160
Rp161
I0
(I8
tp162
(I1
tp163
I01
Ntp164
Rp165
aa(lp166
g101
ag59
(g60
((lp167
F-0.6123188138008118
aF1.0605677366256714
aF-0.279376745223999
aF-0.7036463618278503
aF-0.242986261844635
aF-0.6490928530693054
aF-0.087742380797863
aF-0.7891912460327148
atp168
Rp169
I0
(I8
tp170
(I1
tp171
I01
Ntp172
Rp173
aatp174
Rp175
sS'bidirectional'
p176
I01
sS'dropout_state'
p177
(dp178
sS'bias'
p179
I01
sS'mode'
p180
S'LSTM'
p181
sS'num_layers'
p182
I1
sg71
g8
((lp183
tp184
Rp185
sg75
I01
sS'input_size'
p186
I5
sS'hidden_size'
p187
I2
sS'_data_ptrs'
p188
(lp189
sbaa(lp190
S'hidden2tag'
p191
ag0
(ctorch.nn.modules.linear
Linear
p192
g2
Ntp193
Rp194
(dp195
g7
g8
((lp196
tp197
Rp198
sg12
g8
((lp199
tp200
Rp201
sg16
g18
sS'in_features'
p202
I4
sS'out_features'
p203
I4
sg26
g8
((lp204
tp205
Rp206
sg30
g8
((lp207
tp208
Rp209
sg55
g8
((lp210
(lp211
g58
ag59
(g60
((lp212
F1.415793538093567
aF2.0533030033111572
aF0.7213158011436462
aF1.7853790521621704
aF-1.4573590755462646
aF-1.31464684009552
aF-0.29147326946258545
aF-1.5507155656814575
aF-0.035135429352521896
aF-0.2970505952835083
aF0.04767773672938347
aF-0.47291070222854614
aF-0.29557085037231445
aF-0.4267229735851288
aF-0.06246861815452576
aF0.050454799085855484
atp213
Rp214
I0
(I4
I4
tp215
(I4
I1
tp216
I01
Ntp217
Rp218
aa(lp219
g179
ag59
(g60
((lp220
F0.033212050795555115
aF-0.6130987405776978
aF0.29723966121673584
aF0.02397853322327137
atp221
Rp222
I0
(I4
tp223
(I1
tp224
I01
Ntp225
Rp226
aatp227
Rp228
sg71
g8
((lp229
tp230
Rp231
sg75
I01
sbaatp232
Rp233
sg54
I5
sg55
g8
((lp234
(lp235
S'transitions'
p236
ag59
(g60
((lp237
F0.6351763606071472
aF0.14698682725429535
aF0.728275716304779
aF-9900.5048828125
aF-0.9710530638694763
aF0.9063332080841064
aF-1.8648457527160645
aF-9900.5048828125
aF-9900.5048828125
aF-9900.5048828125
aF-9900.5048828125
aF-9900.5048828125
aF-1.3851474523544312
aF0.27951282262802124
aF-1.50702965259552
aF-9900.5048828125
atp238
Rp239
I0
(I4
I4
tp240
(I4
I1
tp241
I01
Ntp242
Rp243
aatp244
Rp245
sS'hidden_dim'
p246
I4
sg71
g8
((lp247
tp248
Rp249
sg75
I01
sS'hidden'
p250
(g59
(g60
((lp251
F0.5446672439575195
aF0.38547283411026
aF0.5452695488929749
aF0.021450994536280632
atp252
Rp253
I0
(I2
I1
I2
tp254
(I2
I2
I1
tp255
I01
Ntp256
Rp257
g59
(g60
((lp258
F0.843323290348053
aF0.6545417904853821
aF0.7775214314460754
aF0.684543251991272
atp259
Rp260
I0
(I2
I1
I2
tp261
(I2
I2
I1
tp262
I01
Ntp263
Rp264
tp265
sb.(dp0
S'\xe9\x99\x95'
p1
I336
sS'\xe5\x9c\x9f'
p2
I204
sS'\xe9\x94\x85'
p3
I203
sS'\xe9\x94\x80'
p4
I105
sS'\xe5\x9c\xb0'
p5
I202
sS'\xe7\x93\x9c'
p6
I342
sS'0'
p7
I198
sS'\xe9\x93\x81'
p8
I244
sS'\xe7\xba\xa2'
p9
I205
sS'\xe5\x8a\xa0'
p10
I133
sS'\xe4\xba\x94'
p11
I299
sS'\xe5\x86\x9c'
p12
I8
sS'\xe5\xbd\x93'
p13
I92
sS'\xe6\xa3\x98'
p14
I239
sS'\xe9\x9a\x8f'
p15
I110
sS'\xe4\xba\xba'
p16
I201
sS'\xe6\xb4\x9b'
p17
I332
sS'\xe8\x96\x84'
p18
I334
sS'\xe6\xb4\x9e'
p19
I33
sS'\xe9\xad\x94'
p20
I294
sS'\xe6\xb4\x8b'
p21
I149
sS'\xe6\xb4\xb2'
p22
I275
sS'\xe8\x96\xaf'
p23
I117
sS'+'
p24
I154
sS'\xe5\xbc\x8f'
p25
I90
sS'\xe5\xbc\x80'
p26
I128
sS'\xe7\xb3\x95'
p27
I303
sS'\xe7\xb3\x96'
p28
I26
sS'\xe5\x95\xa1'
p29
I246
sS'\xe9\x87\x8c'
p30
I139
sS'\xe8\x98\x91'
p31
I173
sS'\xe8\x90\xa8'
p32
I66
sS'\xe7\x81\xab'
p33
I21
sS'\xe7\xb3\xaf'
p34
I279
sS'\xe6\x8a\xab'
p35
I65
sS'\xe6\x91\xa9'
p36
I284
sS'\xe7\x84\x96'
p37
I305
sS'\xe9\xbe\x99'
p38
I36
sS'\xe7\x84\xb6'
p39
I223
sS'\xe8\xa5\xbf'
p40
I306
sS'\xe7\x84\xa6'
p41
I234
sS'6'
p42
I197
sS'\xe5\x86\xb0'
p43
I230
sS'\xe8\x85\xbf'
p44
I83
sS'\xe5\xad\x90'
p45
I240
sS'\xe6\xba\xa2'
p46
I150
sS'\xe5\xad\x9c'
p47
I222
sS'\xe8\x85\x90'
p48
I296
sS'g'
p49
I271
sS'\xe5\x9f\xb9'
p50
I112
sS'\xe4\xbf\x8f'
p51
I193
sS'\xe8\x85\x8a'
p52
I81
sS'\xe7\xad\x8b'
p53
I322
sS'\xe6\x8a\xb9'
p54
I207
sS'\xe5\xb1\x8e'
p55
I316
sS'\xe6\xb8\x85'
p56
I20
sS'\xe8\x8a\x8b'
p57
I295
sS'\xe8\x8a\xb1'
p58
I144
sS'1'
p59
I59
sS'\xe8\x8a\xa6'
p60
I308
sS'\xe9\xa1\xb6'
p61
I34
sS'\xe7\xb4\xa0'
p62
I6
sS'\xe6\xb1\x89'
p63
I221
sS'\xe6\x9d\x82'
p64
I157
sS'\xe5\x91\xb3'
p65
I235
sS'\xe6\xb1\x81'
p66
I320
sS'\xe5\xb8\x88'
p67
I186
sS'\xe6\xb1\x9f'
p68
I266
sS'\xe7\xbf\x85'
p69
I225
sS'\xe8\x93\x9d'
p70
I163
sS'\xe5\xb8\xa6'
p71
I247
sS'\xe6\xb1\xa4'
p72
I51
sS'\xe5\xbf\x83'
p73
I143
sS'\xe6\x98\x8c'
p74
I297
sS'\xe6\x98\x8e'
p75
I16
sS'\xe5\xb8\xb8'
p76
I300
sS'\xe9\xb8\xa1'
p77
I82
sS'\xe9\xb2\x9c'
p78
I72
sS'\xe6\xb2\x8c'
p79
I329
sS'\xe6\xb2\x99'
p80
I238
sS'\xe8\x99\xbe'
p81
I182
sS'\xe7\xb2\x89'
p82
I53
sS'\xe7\xb2\xbe'
p83
I43
sS'\xe6\xb2\xac'
p84
I121
sS'\xe6\xb2\xb3'
p85
I319
sS'\xe6\x9c\xba'
p86
I111
sS'\xe6\xb2\xbb'
p87
I17
sS'\xe7\x9b\x8a'
p88
I165
sS'\xe6\x9d\xaf'
p89
I95
sS'\xe8\xa2\x9c'
p90
I277
sS'\xe7\x9b\x96'
p91
I86
sS'l'
p92
I200
sS'\xe5\x9b\xad'
p93
I1
sS'\xe8\xb5\xa4'
p94
I175
sS'\xe5\x8d\xa4'
p95
I39
sS'\xe5\x8d\xa1'
p96
I285
sS'\xe5\x8d\xb7'
p97
I286
sS'\xe8\x8e\xb2'
p98
I250
sS'\xe6\x8e\xa8'
p99
I71
sS'\xe9\xa5\xba'
p100
I309
sS'\xe5\x8d\x81'
p101
I181
sS'\xe9\xa5\xbc'
p102
I159
sS'\xe5\x8d\x8a'
p103
I25
sS'\xe5\x8d\x95'
p104
I136
sS'\xe9\xa5\xa8'
p105
I74
sS'\xe8\x8e\x93'
p106
I164
sS'\xe9\xa5\xad'
p107
I19
sS'\xe5\x8d\x9c'
p108
I191
sS'\xe7\xa0\x82'
p109
I276
sS'\xe9\x85\xb8'
p110
I189
sS'\xe8\xb9\x84'
p111
I321
sS'\xe6\xb5\x93'
p112
I219
sS'\xe9\x85\xb1'
p113
I217
sS'\xe7\x89\xb9'
p114
I169
sS'\xe6\xb5\x87'
p115
I87
sS'\xe9\x85\xaa'
p116
I323
sS'\xe7\xbb\xbf'
p117
I22
sS'\xe8\x97\x95'
p118
I255
sS'\xe8\x90\xa5'
p119
I227
sS'\xe6\xb5\xb7'
p120
I49
sS'\xe8\x90\x9d'
p121
I190
sS'\xe9\x85\x92'
p122
I196
sS'\xe7\x89\x9b'
p123
I210
sS'\xe7\x89\x87'
p124
I256
sS'\xe7\x89\x8c'
p125
I126
sS'\xe7\x8c\xaa'
p126
I282
sS'\xe7\x8c\xab'
p127
I315
sS'\xe6\xb6\x88'
p128
I253
sS'\xe5\x90\xab'
p129
I211
sS'\xe6\xb6\xa9'
p130
I152
sS'\xe9\x80\x9a'
p131
I218
sS'\xe8\x94\xac'
p132
I156
sS'\xe9\x80\x81'
p133
I258
sS'\xe9\x80\x89'
p134
I129
sS'\xe5\x90\x83'
p135
I252
sS'\xe6\x80\xaa'
p136
I248
sS'a'
p137
I269
sS'\xe5\xa5\x97'
p138
I47
sS'\xe6\x96\xa4'
p139
I183
sS'\xe6\x96\xb0'
p140
I213
sS'b'
p141
I268
sS'\xe6\x96\x87'
p142
I122
sS'\xe5\xa5\xb6'
p143
I98
sS'\xe6\x96\x99'
p144
I134
sS'\xe7\xb1\xb3'
p145
I52
sS'\xe4\xb8\xaa'
p146
I57
sS'\xe5\x82\x85'
p147
I187
sS'\xe8\x82\xa5'
p148
I209
sS'\xe7\x95\xaa'
p149
I215
sS'\xe6\xa0\xb9'
p150
I113
sS'\xe8\x82\xa0'
p151
I12
sS'\xe8\xb4\xb4'
p152
I280
sS'\xe4\xb8\xa4'
p153
I78
sS'\xe8\x82\x89'
p154
I40
sS'\xe7\x95\x85'
p155
I180
sS'-'
p156
I272
sS'\xe5\x89\x81'
p157
I312
sS'\xe4\xbb\xbd'
p158
I146
sS'\xe6\x8b\xa9'
p159
I130
sS'\xe7\xac\x8b'
p160
I168
sS'\xe5\xb0\x96'
p161
I119
sS'\xe5\xb0\x8f'
p162
I41
sS'\xe6\x8b\xbf'
p163
I243
sS'\xe6\x8b\x89'
p164
I261
sS'm'
p165
I199
sS'\xe6\x8b\x9b'
p166
I125
sS'\xe7\xac\xbc'
p167
I54
sS'\xe7\xa7\x8d'
p168
I263
sS'\xe7\xba\xaf'
p169
I338
sS'\xe9\xa3\x8e'
p170
I2
sS'\xe6\xa9\x99'
p171
I188
sS'\xe7\x88\xbd'
p172
I30
sS'\xe5\xba\xb7'
p173
I185
sS'\xe7\x88\xb8'
p174
I42
sS'\xe7\xba\xbf'
p175
I257
sS'\xe8\x91\xab'
p176
I307
sS'\xe9\xaa\xa8'
p177
I46
sS'\xe7\xba\xb7'
p178
I331
sS'\xe5\xba\x94'
p179
I108
sS'('
p180
I4
sS'3'
p181
I79
sS'\xe7\x88\x86'
p182
I233
sS'\xe4\xb8\x8b'
p183
I135
sS'\xe5\xba\x86'
p184
I327
sS'\xe8\x88\xac'
p185
I251
sS'\xe7\x83\xa4'
p186
I14
sS'\xe7\x83\xa7'
p187
I13
sS'\xe7\xbd\x97'
p188
I220
sS'2'
p189
I60
sS'\xe9\xb1\xbc'
p190
I123
sS'\xe6\xb3\xa2'
p191
I96
sS'\xe6\xb3\xa8'
p192
I138
sS'\xe6\x9d\xa1'
p193
I118
sS'\xe6\x9d\xbe'
p194
I298
sS'\xe5\x93\x81'
p195
I44
sS'\xe5\x93\x88'
p196
I340
sS'\xe6\xaf\x94'
p197
I260
sS'\xe4\xb8\xbd'
p198
I265
sS'\xe5\x85\xbb'
p199
I228
sS'\xe5\x85\xb7'
p200
I131
sS'\xe4\xb8\xb2'
p201
I142
sS'\xe5\x85\xad'
p202
I262
sS'\xe4\xb8\xad'
p203
I226
sS'\xe9\x9d\xa2'
p204
I102
sS'\xe5\x85\xa8'
p205
I5
sS'\xe5\x85\xab'
p206
I56
sS'\xe6\xaf\x8f'
p207
I103
sS'\xe4\xb8\x9d'
p208
I69
sS'\xe9\x9d\x92'
p209
I84
sS'\xe4\xb8\x98'
p210
I259
sS'\xe4\xb8\x8d'
p211
I161
sS'\xe5\x85\x89'
p212
I3
sS'\xe4\xb8\x89'
p213
I15
sS'\xe5\x85\x83'
p214
I176
sS'\xe4\xb8\x80'
p215
I77
sS'\xe9\xa4\x90'
p216
I48
sS'\xe6\xa4\x92'
p217
I85
sS'\xf0\x9f\x8d\xb1'
p218
I93
sS'\xe8\xb1\x86'
p219
I23
sS'\xe8\x8f\x87'
p220
I174
sS'\xe8\x8f\x8c'
p221
I166
sS'\xe8\x8f\x8a'
p222
I289
sS'\xe5\x8c\x85'
p223
I115
sS'\xe6\xa4\xb0'
p224
I31
sS'\xe8\x8f\x9c'
p225
I18
sS'\xe5\x8c\x97'
p226
I337
sS'\xf0\x9f\x8d\x9b'
p227
I88
sS'\xe5\x8f\xa3'
p228
I153
sS'\xe5\x8f\xaa'
p229
I80
sS'\xe5\x8f\xaf'
p230
I264
sS'\xe5\x8f\xb0'
p231
I89
sS'\xe6\xbe\xb3'
p232
I274
sS'\xe5\x8f\xb6'
p233
I290
sS'\xe8\x8c\x84'
p234
I216
sS'\xe8\x8c\xb6'
p235
I99
sS'\xe5\x8f\x91'
p236
I302
sS'\xe7\xb2\xa5'
p237
I24
sS'\xe7\xa6\x8f'
p238
I160
sS'\xe8\x95\x83'
p239
I304
sS'\xe7\xb2\xae'
p240
I158
sS'\xe9\x87\x91'
p241
I179
sS'n'
p242
I270
sS'\xe9\x99\xb6'
p243
I254
sS'\xe9\x87\x8f'
p244
I106
sS'\xe6\xb7\xb7'
p245
I328
sS'\xe7\x9a\x84'
p246
I76
sS'\xe5\xa8\x81'
p247
I63
sS'\xe7\xa8\xbb'
p248
I267
sS'\xe7\x9a\xae'
p249
I242
sS'\xe9\xb8\xad'
p250
I68
sS')'
p251
I7
sS'\xe7\xb4\xab'
p252
I278
sS'9'
p253
I288
sS'\xe5\x88\xb6'
p254
I229
sS'\xe8\xb5\xa0'
p255
I192
sS'\xe5\xaf\x86'
p256
I341
sS'\xe6\xa1\xb6'
p257
I237
sS'\xe7\x94\xb0'
p258
I0
sS'\xe7\x94\xb2'
p259
I145
sS'\xe9\x98\xb3'
p260
I100
sS'\xe5\x88\xa9'
p261
I148
sS'\xe4\xbd\x93'
p262
I132
sS'\xe5\x88\x86'
p263
I273
sS'\xe5\x88\x87'
p264
I339
sS'\xe5\xaf\xb8'
p265
I61
sS'\xe7\x94\x9c'
p266
I324
sS'\xe7\x94\x9f'
p267
I75
sS'\xe9\x9b\xaa'
p268
I317
sS'\xe7\xab\xb9'
p269
I167
sS'\xe8\x82\x9d'
p270
I283
sS'\xe9\x9b\x85'
p271
I194
sS'\xe8\x80\x81'
p272
I67
sS'\xe5\xb9\xb2'
p273
I311
sS'4'
p274
I141
sS'\xe6\xa2\x85'
p275
I195
sS'\xe8\x92\xb8'
p276
I10
sS'\xe5\xb2\x9b'
p277
I38
sS'\xe7\xa2\x97'
p278
I178
sS'\xe8\x92\xa1'
p279
I292
sS'\xe8\x89\xb2'
p280
I170
sS'\xe7\xa5\x9e'
p281
I333
sS'8'
p282
I291
sS'\xe5\xa4\xa7'
p283
I94
sS'\xe5\xa4\xa9'
p284
I104
sS'\xe6\x97\xa0'
p285
I29
sS'\xe5\xa4\xb7'
p286
I64
sS'\xe5\xa4\xb4'
p287
I124
sS'\xe5\x96\xb1'
p288
I287
sS'\xe6\x97\xb6'
p289
I155
sS'\xe6\x9e\x9c'
p290
I32
sS'\xe5\xa4\x87'
p291
I137
sS'\xe5\xa4\x8f'
p292
I62
sS'/'
p293
I236
sS'\xe5\xa4\x9a'
p294
I28
sS'\xe9\x9c\xb8'
p295
I97
sS'\xe4\xb9\x90'
p296
I318
sS'\xe4\xb9\x8c'
p297
I35
sS'\xe3\x80\x8a'
p298
I313
sS'\xe3\x80\x8b'
p299
I314
sS'\xe7\x99\xbd'
p300
I310
sS'\xe5\x87\xba'
p301
I301
sS'\xe5\xae\x87'
p302
I206
sS'\xe5\xae\x89'
p303
I326
sS'\xe4\xbe\xbf'
p304
I91
sS'\xe6\xa6\xb4'
p305
I249
sS'\xe5\xae\x9d'
p306
I37
sS'\xe6\x97\xa9'
p307
I293
sS'\xe8\x84\x96'
p308
I171
sS'\xe8\xbe\xa3'
p309
I162
sS'\xe4\xbe\x9b'
p310
I107
sS'\xe8\x84\x86'
p311
I241
sS'\xe5\xae\xb5'
p312
I177
sS'\xe5\xae\xb6'
p313
I9
sS'\xef\xbc\x8f'
p314
I184
sS'\xe8\x84\x8a'
p315
I140
sS'\xe9\xa6\x99'
p316
I11
sS'\xe9\xa6\x84'
p317
I73
sS'\xe6\x89\x93'
p318
I101
sS'\xe8\x8d\xb7'
p319
I335
sS'\xe6\x89\x8b'
p320
I70
sS'\xe7\x86\x8f'
p321
I325
sS'\xe5\xa0\xa1'
p322
I281
sS'\xe7\x82\xb8'
p323
I224
sS'\xe7\x82\xb9'
p324
I127
sS'\xe8\x9b\x8b'
p325
I114
sS'\xe5\x92\x96'
p326
I245
sS'\xe8\x9b\x8f'
p327
I50
sS'\xe7\x82\x96'
p328
I172
sS'\xe6\xb0\xb4'
p329
I109
sS'\xe8\x9b\x99'
p330
I231
sS'\xe7\x82\x92'
p331
I120
sS'\xe7\xbc\xa4'
p332
I330
sS'\xef\xbc\x88'
p333
I55
sS'\xef\xbc\x89'
p334
I58
sS'\xef\xbc\x8b'
p335
I116
sS'\xef\xbc\x8c'
p336
I27
sS'\xe7\x85\x8e'
p337
I147
sS'\xe6\x8e\x92'
p338
I45
sS'\xe7\x85\xb2'
p339
I232
sS'\xe5\xa7\xbf'
p340
I151
sS'\xef\xbc\xbb'
p341
I212
sS'\xef\xbc\xbd'
p342
I214
sS'\xe7\x85\xae'
p343
I208
s.(dp0
S'\xe9\x99\x95'
p1
I336
sS'\xe5\x9c\x9f'
p2
I204
sS'\xe9\x94\x85'
p3
I203
sS'\xe9\x94\x80'
p4
I105
sS'\xe5\x9c\xb0'
p5
I202
sS'\xe7\x93\x9c'
p6
I342
sS'0'
p7
I198
sS'\xe9\x93\x81'
p8
I244
sS'\xe7\xba\xa2'
p9
I205
sS'\xe5\x8a\xa0'
p10
I133
sS'\xe4\xba\x94'
p11
I299
sS'\xe5\x86\x9c'
p12
I8
sS'\xe5\xbd\x93'
p13
I92
sS'\xe6\xa3\x98'
p14
I239
sS'\xe9\x9a\x8f'
p15
I110
sS'\xe4\xba\xba'
p16
I201
sS'\xe6\xb4\x9b'
p17
I332
sS'\xe8\x96\x84'
p18
I334
sS'\xe6\xb4\x9e'
p19
I33
sS'\xe9\xad\x94'
p20
I294
sS'\xe6\xb4\x8b'
p21
I149
sS'\xe6\xb4\xb2'
p22
I275
sS'\xe8\x96\xaf'
p23
I117
sS'+'
p24
I154
sS'\xe5\xbc\x8f'
p25
I90
sS'\xe5\xbc\x80'
p26
I128
sS'\xe7\xb3\x95'
p27
I303
sS'\xe7\xb3\x96'
p28
I26
sS'\xe5\x95\xa1'
p29
I246
sS'\xe9\x87\x8c'
p30
I139
sS'\xe8\x98\x91'
p31
I173
sS'\xe8\x90\xa8'
p32
I66
sS'\xe7\x81\xab'
p33
I21
sS'\xe7\xb3\xaf'
p34
I279
sS'\xe6\x8a\xab'
p35
I65
sS'\xe6\x91\xa9'
p36
I284
sS'\xe7\x84\x96'
p37
I305
sS'\xe9\xbe\x99'
p38
I36
sS'\xe7\x84\xb6'
p39
I223
sS'\xe8\xa5\xbf'
p40
I306
sS'\xe7\x84\xa6'
p41
I234
sS'6'
p42
I197
sS'\xe5\x86\xb0'
p43
I230
sS'\xe8\x85\xbf'
p44
I83
sS'\xe5\xad\x90'
p45
I240
sS'\xe6\xba\xa2'
p46
I150
sS'\xe5\xad\x9c'
p47
I222
sS'\xe8\x85\x90'
p48
I296
sS'g'
p49
I271
sS'\xe5\x9f\xb9'
p50
I112
sS'\xe4\xbf\x8f'
p51
I193
sS'\xe8\x85\x8a'
p52
I81
sS'\xe7\xad\x8b'
p53
I322
sS'\xe6\x8a\xb9'
p54
I207
sS'\xe5\xb1\x8e'
p55
I316
sS'\xe6\xb8\x85'
p56
I20
sS'\xe8\x8a\x8b'
p57
I295
sS'\xe8\x8a\xb1'
p58
I144
sS'1'
p59
I59
sS'\xe8\x8a\xa6'
p60
I308
sS'\xe9\xa1\xb6'
p61
I34
sS'\xe7\xb4\xa0'
p62
I6
sS'\xe6\xb1\x89'
p63
I221
sS'\xe6\x9d\x82'
p64
I157
sS'\xe5\x91\xb3'
p65
I235
sS'\xe6\xb1\x81'
p66
I320
sS'\xe5\xb8\x88'
p67
I186
sS'\xe6\xb1\x9f'
p68
I266
sS'\xe7\xbf\x85'
p69
I225
sS'\xe8\x93\x9d'
p70
I163
sS'\xe5\xb8\xa6'
p71
I247
sS'\xe6\xb1\xa4'
p72
I51
sS'\xe5\xbf\x83'
p73
I143
sS'\xe6\x98\x8c'
p74
I297
sS'\xe6\x98\x8e'
p75
I16
sS'\xe5\xb8\xb8'
p76
I300
sS'\xe9\xb8\xa1'
p77
I82
sS'\xe9\xb2\x9c'
p78
I72
sS'\xe6\xb2\x8c'
p79
I329
sS'\xe6\xb2\x99'
p80
I238
sS'\xe8\x99\xbe'
p81
I182
sS'\xe7\xb2\x89'
p82
I53
sS'\xe7\xb2\xbe'
p83
I43
sS'\xe6\xb2\xac'
p84
I121
sS'\xe6\xb2\xb3'
p85
I319
sS'\xe6\x9c\xba'
p86
I111
sS'\xe6\xb2\xbb'
p87
I17
sS'\xe7\x9b\x8a'
p88
I165
sS'\xe6\x9d\xaf'
p89
I95
sS'\xe8\xa2\x9c'
p90
I277
sS'\xe7\x9b\x96'
p91
I86
sS'l'
p92
I200
sS'\xe5\x9b\xad'
p93
I1
sS'\xe8\xb5\xa4'
p94
I175
sS'\xe5\x8d\xa4'
p95
I39
sS'\xe5\x8d\xa1'
p96
I285
sS'\xe5\x8d\xb7'
p97
I286
sS'\xe8\x8e\xb2'
p98
I250
sS'\xe6\x8e\xa8'
p99
I71
sS'\xe9\xa5\xba'
p100
I309
sS'\xe5\x8d\x81'
p101
I181
sS'\xe9\xa5\xbc'
p102
I159
sS'\xe5\x8d\x8a'
p103
I25
sS'\xe5\x8d\x95'
p104
I136
sS'\xe9\xa5\xa8'
p105
I74
sS'\xe8\x8e\x93'
p106
I164
sS'\xe9\xa5\xad'
p107
I19
sS'\xe5\x8d\x9c'
p108
I191
sS'\xe7\xa0\x82'
p109
I276
sS'\xe9\x85\xb8'
p110
I189
sS'\xe8\xb9\x84'
p111
I321
sS'\xe6\xb5\x93'
p112
I219
sS'\xe9\x85\xb1'
p113
I217
sS'\xe7\x89\xb9'
p114
I169
sS'\xe6\xb5\x87'
p115
I87
sS'\xe9\x85\xaa'
p116
I323
sS'\xe7\xbb\xbf'
p117
I22
sS'\xe8\x97\x95'
p118
I255
sS'\xe8\x90\xa5'
p119
I227
sS'\xe6\xb5\xb7'
p120
I49
sS'\xe8\x90\x9d'
p121
I190
sS'\xe9\x85\x92'
p122
I196
sS'\xe7\x89\x9b'
p123
I210
sS'\xe7\x89\x87'
p124
I256
sS'\xe7\x89\x8c'
p125
I126
sS'\xe7\x8c\xaa'
p126
I282
sS'\xe7\x8c\xab'
p127
I315
sS'\xe6\xb6\x88'
p128
I253
sS'\xe5\x90\xab'
p129
I211
sS'\xe6\xb6\xa9'
p130
I152
sS'\xe9\x80\x9a'
p131
I218
sS'\xe8\x94\xac'
p132
I156
sS'\xe9\x80\x81'
p133
I258
sS'\xe9\x80\x89'
p134
I129
sS'\xe5\x90\x83'
p135
I252
sS'\xe6\x80\xaa'
p136
I248
sS'a'
p137
I269
sS'\xe5\xa5\x97'
p138
I47
sS'\xe6\x96\xa4'
p139
I183
sS'\xe6\x96\xb0'
p140
I213
sS'b'
p141
I268
sS'\xe6\x96\x87'
p142
I122
sS'\xe5\xa5\xb6'
p143
I98
sS'\xe6\x96\x99'
p144
I134
sS'\xe7\xb1\xb3'
p145
I52
sS'\xe4\xb8\xaa'
p146
I57
sS'\xe5\x82\x85'
p147
I187
sS'\xe8\x82\xa5'
p148
I209
sS'\xe7\x95\xaa'
p149
I215
sS'\xe6\xa0\xb9'
p150
I113
sS'\xe8\x82\xa0'
p151
I12
sS'\xe8\xb4\xb4'
p152
I280
sS'\xe4\xb8\xa4'
p153
I78
sS'\xe8\x82\x89'
p154
I40
sS'\xe7\x95\x85'
p155
I180
sS'-'
p156
I272
sS'\xe5\x89\x81'
p157
I312
sS'\xe4\xbb\xbd'
p158
I146
sS'\xe6\x8b\xa9'
p159
I130
sS'\xe7\xac\x8b'
p160
I168
sS'\xe5\xb0\x96'
p161
I119
sS'\xe5\xb0\x8f'
p162
I41
sS'\xe6\x8b\xbf'
p163
I243
sS'\xe6\x8b\x89'
p164
I261
sS'm'
p165
I199
sS'\xe6\x8b\x9b'
p166
I125
sS'\xe7\xac\xbc'
p167
I54
sS'\xe7\xa7\x8d'
p168
I263
sS'\xe7\xba\xaf'
p169
I338
sS'\xe9\xa3\x8e'
p170
I2
sS'\xe6\xa9\x99'
p171
I188
sS'\xe7\x88\xbd'
p172
I30
sS'\xe5\xba\xb7'
p173
I185
sS'\xe7\x88\xb8'
p174
I42
sS'\xe7\xba\xbf'
p175
I257
sS'\xe8\x91\xab'
p176
I307
sS'\xe9\xaa\xa8'
p177
I46
sS'\xe7\xba\xb7'
p178
I331
sS'\xe5\xba\x94'
p179
I108
sS'('
p180
I4
sS'3'
p181
I79
sS'\xe7\x88\x86'
p182
I233
sS'\xe4\xb8\x8b'
p183
I135
sS'\xe5\xba\x86'
p184
I327
sS'\xe8\x88\xac'
p185
I251
sS'\xe7\x83\xa4'
p186
I14
sS'\xe7\x83\xa7'
p187
I13
sS'\xe7\xbd\x97'
p188
I220
sS'2'
p189
I60
sS'\xe9\xb1\xbc'
p190
I123
sS'\xe6\xb3\xa2'
p191
I96
sS'\xe6\xb3\xa8'
p192
I138
sS'\xe6\x9d\xa1'
p193
I118
sS'\xe6\x9d\xbe'
p194
I298
sS'\xe5\x93\x81'
p195
I44
sS'\xe5\x93\x88'
p196
I340
sS'\xe6\xaf\x94'
p197
I260
sS'\xe4\xb8\xbd'
p198
I265
sS'\xe5\x85\xbb'
p199
I228
sS'\xe5\x85\xb7'
p200
I131
sS'\xe4\xb8\xb2'
p201
I142
sS'\xe5\x85\xad'
p202
I262
sS'\xe4\xb8\xad'
p203
I226
sS'\xe9\x9d\xa2'
p204
I102
sS'\xe5\x85\xa8'
p205
I5
sS'\xe5\x85\xab'
p206
I56
sS'\xe6\xaf\x8f'
p207
I103
sS'\xe4\xb8\x9d'
p208
I69
sS'\xe9\x9d\x92'
p209
I84
sS'\xe4\xb8\x98'
p210
I259
sS'\xe4\xb8\x8d'
p211
I161
sS'\xe5\x85\x89'
p212
I3
sS'\xe4\xb8\x89'
p213
I15
sS'\xe5\x85\x83'
p214
I176
sS'\xe4\xb8\x80'
p215
I77
sS'\xe9\xa4\x90'
p216
I48
sS'\xe6\xa4\x92'
p217
I85
sS'\xf0\x9f\x8d\xb1'
p218
I93
sS'\xe8\xb1\x86'
p219
I23
sS'\xe8\x8f\x87'
p220
I174
sS'\xe8\x8f\x8c'
p221
I166
sS'\xe8\x8f\x8a'
p222
I289
sS'\xe5\x8c\x85'
p223
I115
sS'\xe6\xa4\xb0'
p224
I31
sS'\xe8\x8f\x9c'
p225
I18
sS'\xe5\x8c\x97'
p226
I337
sS'\xf0\x9f\x8d\x9b'
p227
I88
sS'\xe5\x8f\xa3'
p228
I153
sS'\xe5\x8f\xaa'
p229
I80
sS'\xe5\x8f\xaf'
p230
I264
sS'\xe5\x8f\xb0'
p231
I89
sS'\xe6\xbe\xb3'
p232
I274
sS'\xe5\x8f\xb6'
p233
I290
sS'\xe8\x8c\x84'
p234
I216
sS'\xe8\x8c\xb6'
p235
I99
sS'\xe5\x8f\x91'
p236
I302
sS'\xe7\xb2\xa5'
p237
I24
sS'\xe7\xa6\x8f'
p238
I160
sS'\xe8\x95\x83'
p239
I304
sS'\xe7\xb2\xae'
p240
I158
sS'\xe9\x87\x91'
p241
I179
sS'n'
p242
I270
sS'\xe9\x99\xb6'
p243
I254
sS'\xe9\x87\x8f'
p244
I106
sS'\xe6\xb7\xb7'
p245
I328
sS'\xe7\x9a\x84'
p246
I76
sS'\xe5\xa8\x81'
p247
I63
sS'\xe7\xa8\xbb'
p248
I267
sS'\xe7\x9a\xae'
p249
I242
sS'\xe9\xb8\xad'
p250
I68
sS')'
p251
I7
sS'\xe7\xb4\xab'
p252
I278
sS'9'
p253
I288
sS'\xe5\x88\xb6'
p254
I229
sS'\xe8\xb5\xa0'
p255
I192
sS'\xe5\xaf\x86'
p256
I341
sS'\xe6\xa1\xb6'
p257
I237
sS'\xe7\x94\xb0'
p258
I0
sS'\xe7\x94\xb2'
p259
I145
sS'\xe9\x98\xb3'
p260
I100
sS'\xe5\x88\xa9'
p261
I148
sS'\xe4\xbd\x93'
p262
I132
sS'\xe5\x88\x86'
p263
I273
sS'\xe5\x88\x87'
p264
I339
sS'\xe5\xaf\xb8'
p265
I61
sS'\xe7\x94\x9c'
p266
I324
sS'\xe7\x94\x9f'
p267
I75
sS'\xe9\x9b\xaa'
p268
I317
sS'\xe7\xab\xb9'
p269
I167
sS'\xe8\x82\x9d'
p270
I283
sS'\xe9\x9b\x85'
p271
I194
sS'\xe8\x80\x81'
p272
I67
sS'\xe5\xb9\xb2'
p273
I311
sS'4'
p274
I141
sS'\xe6\xa2\x85'
p275
I195
sS'\xe8\x92\xb8'
p276
I10
sS'\xe5\xb2\x9b'
p277
I38
sS'\xe7\xa2\x97'
p278
I178
sS'\xe8\x92\xa1'
p279
I292
sS'\xe8\x89\xb2'
p280
I170
sS'\xe7\xa5\x9e'
p281
I333
sS'8'
p282
I291
sS'\xe5\xa4\xa7'
p283
I94
sS'\xe5\xa4\xa9'
p284
I104
sS'\xe6\x97\xa0'
p285
I29
sS'\xe5\xa4\xb7'
p286
I64
sS'\xe5\xa4\xb4'
p287
I124
sS'\xe5\x96\xb1'
p288
I287
sS'\xe6\x97\xb6'
p289
I155
sS'\xe6\x9e\x9c'
p290
I32
sS'\xe5\xa4\x87'
p291
I137
sS'\xe5\xa4\x8f'
p292
I62
sS'/'
p293
I236
sS'\xe5\xa4\x9a'
p294
I28
sS'\xe9\x9c\xb8'
p295
I97
sS'\xe4\xb9\x90'
p296
I318
sS'\xe4\xb9\x8c'
p297
I35
sS'\xe3\x80\x8a'
p298
I313
sS'\xe3\x80\x8b'
p299
I314
sS'\xe7\x99\xbd'
p300
I310
sS'\xe5\x87\xba'
p301
I301
sS'\xe5\xae\x87'
p302
I206
sS'\xe5\xae\x89'
p303
I326
sS'\xe4\xbe\xbf'
p304
I91
sS'\xe6\xa6\xb4'
p305
I249
sS'\xe5\xae\x9d'
p306
I37
sS'\xe6\x97\xa9'
p307
I293
sS'\xe8\x84\x96'
p308
I171
sS'\xe8\xbe\xa3'
p309
I162
sS'\xe4\xbe\x9b'
p310
I107
sS'\xe8\x84\x86'
p311
I241
sS'\xe5\xae\xb5'
p312
I177
sS'\xe5\xae\xb6'
p313
I9
sS'\xef\xbc\x8f'
p314
I184
sS'\xe8\x84\x8a'
p315
I140
sS'\xe9\xa6\x99'
p316
I11
sS'\xe9\xa6\x84'
p317
I73
sS'\xe6\x89\x93'
p318
I101
sS'\xe8\x8d\xb7'
p319
I335
sS'\xe6\x89\x8b'
p320
I70
sS'\xe7\x86\x8f'
p321
I325
sS'\xe5\xa0\xa1'
p322
I281
sS'\xe7\x82\xb8'
p323
I224
sS'\xe7\x82\xb9'
p324
I127
sS'\xe8\x9b\x8b'
p325
I114
sS'\xe5\x92\x96'
p326
I245
sS'\xe8\x9b\x8f'
p327
I50
sS'\xe7\x82\x96'
p328
I172
sS'\xe6\xb0\xb4'
p329
I109
sS'\xe8\x9b\x99'
p330
I231
sS'\xe7\x82\x92'
p331
I120
sS'\xe7\xbc\xa4'
p332
I330
sS'\xef\xbc\x88'
p333
I55
sS'\xef\xbc\x89'
p334
I58
sS'\xef\xbc\x8b'
p335
I116
sS'\xef\xbc\x8c'
p336
I27
sS'\xe7\x85\x8e'
p337
I147
sS'\xe6\x8e\x92'
p338
I45
sS'\xe7\x85\xb2'
p339
I232
sS'\xe5\xa7\xbf'
p340
I151
sS'\xef\xbc\xbb'
p341
I212
sS'\xef\xbc\xbd'
p342
I214
sS'\xe7\x85\xae'
p343
I208
s.